target datalayout = "e-m:e-p270:32:32-p271:32:32-p272:64:64-i64:64-i128:128-f80:128-n8:16:32:64-S128"
target triple = "x86_64-pc-linux-gnu"

; Function Attrs: nounwind uwtable
define internal void @Int32_To_Int8_Dither(ptr noundef %0, i32 noundef %1, ptr noundef %2, i32 noundef %3, i32 noundef %4, ptr noundef %5) #0 {
  %7 = alloca ptr, align 8
  %8 = alloca i32, align 4
  %9 = alloca ptr, align 8
  %10 = alloca i32, align 4
  %11 = alloca i32, align 4
  %12 = alloca ptr, align 8
  %13 = alloca ptr, align 8
  %14 = alloca ptr, align 8
  %15 = alloca i32, align 4
  store ptr %0, ptr %7, align 8, !tbaa !70
  store i32 %1, ptr %8, align 4, !tbaa !71
  store ptr %2, ptr %9, align 8, !tbaa !70
  store i32 %3, ptr %10, align 4, !tbaa !71
  store i32 %4, ptr %11, align 4, !tbaa !71
  store ptr %5, ptr %12, align 8, !tbaa !73
  call void @llvm.lifetime.start.p0(i64 8, ptr %13) #4
  %16 = load ptr, ptr %9, align 8, !tbaa !70
  store ptr %16, ptr %13, align 8, !tbaa !77
  call void @llvm.lifetime.start.p0(i64 8, ptr %14) #4
  %17 = load ptr, ptr %7, align 8, !tbaa !70
  store ptr %17, ptr %14, align 8, !tbaa !87
  call void @llvm.lifetime.start.p0(i64 4, ptr %15) #4
  br label %18

18:                                               ; preds = %22, %6
  %19 = load i32, ptr %11, align 4, !tbaa !71
  %20 = add i32 %19, -1
  store i32 %20, ptr %11, align 4, !tbaa !71
  %21 = icmp ne i32 %19, 0
  br i1 %21, label %22, label %41

22:                                               ; preds = %18
  %23 = load ptr, ptr %12, align 8, !tbaa !73
  %24 = call i32 @PaUtil_Generate16BitTriangularDither(ptr noundef %23)
  store i32 %24, ptr %15, align 4, !tbaa !71
  %25 = load ptr, ptr %13, align 8, !tbaa !77
  %26 = load i32, ptr %25, align 4, !tbaa !71
  %27 = ashr i32 %26, 1
  %28 = load i32, ptr %15, align 4, !tbaa !71
  %29 = add nsw i32 %27, %28
  %30 = ashr i32 %29, 23
  %31 = trunc i32 %30 to i8
  %32 = load ptr, ptr %14, align 8, !tbaa !87
  store i8 %31, ptr %32, align 1, !tbaa !89
  %33 = load i32, ptr %10, align 4, !tbaa !71
  %34 = load ptr, ptr %13, align 8, !tbaa !77
  %35 = sext i32 %33 to i64
  %36 = getelementptr inbounds i32, ptr %34, i64 %35
  store ptr %36, ptr %13, align 8, !tbaa !77
  %37 = load i32, ptr %8, align 4, !tbaa !71
  %38 = load ptr, ptr %14, align 8, !tbaa !87
  %39 = sext i32 %37 to i64
  %40 = getelementptr inbounds i8, ptr %38, i64 %39
  store ptr %40, ptr %14, align 8, !tbaa !87
  br label %18, !llvm.loop !115

41:                                               ; preds = %18
  call void @llvm.lifetime.end.p0(i64 4, ptr %15) #4
  call void @llvm.lifetime.end.p0(i64 8, ptr %14) #4
  call void @llvm.lifetime.end.p0(i64 8, ptr %13) #4
  ret void
}