; Function Attrs: nounwind uwtable
define internal void @Int32_To_Int8_Dither(ptr noundef writeonly captures(none) %0, i32 noundef %1, ptr noundef readonly captures(none) %2, i32 noundef %3, i32 noundef %4, ptr noundef %5) #3 {
  %.not12 = icmp eq i32 %4, 0
  br i1 %.not12, label %._crit_edge, label %.lr.ph

.lr.ph:                                           ; preds = %6
  %7 = sext i32 %3 to i64
  %8 = sext i32 %1 to i64
  br label %9

9:                                                ; preds = %.lr.ph, %9
  %.015 = phi i32 [ %4, %.lr.ph ], [ %10, %9 ]
  %.01014 = phi ptr [ %0, %.lr.ph ], [ %18, %9 ]
  %.01113 = phi ptr [ %2, %.lr.ph ], [ %17, %9 ]
  %10 = add i32 %.015, -1
  %11 = tail call i32 @PaUtil_Generate16BitTriangularDither(ptr noundef %5) #9
  %12 = load i32, ptr %.01113, align 4, !tbaa !70
  %13 = lshr i32 %12, 1
  %14 = add i32 %13, %11
  %15 = lshr i32 %14, 23
  %16 = trunc i32 %15 to i8
  store i8 %16, ptr %.01014, align 1, !tbaa !76
  %17 = getelementptr inbounds i32, ptr %.01113, i64 %7
  %18 = getelementptr inbounds i8, ptr %.01014, i64 %8
  %.not = icmp eq i32 %10, 0
  br i1 %.not, label %._crit_edge, label %9, !llvm.loop !100

._crit_edge:                                      ; preds = %9, %6
  ret void
}